target datalayout = "e-m:e-p270:32:32-p271:32:32-p272:64:64-i64:64-i128:128-f80:128-n8:16:32:64-S128"
target triple = "x86_64-pc-linux-gnu"

%struct.lua_State = type { i8, i8, i8, i8, i8, i8, i8, ptr, ptr, ptr, ptr, ptr, ptr, ptr, ptr, i32, i32, i16, i16, i32, ptr, ptr, ptr, ptr, ptr }
%struct.lua_TValue = type { %union.Value, [1 x i32], i32 }
%union.Value = type { ptr }

@.str.27 = private unnamed_addr constant [19 x i8] c"index out of range\00", align 1

; Function Attrs: mustprogress uwtable
define internal noundef i32 @_ZL5tfindP9lua_State(ptr noundef %0) #0 {
  %2 = alloca i32, align 4
  %3 = alloca ptr, align 8
  %4 = alloca i32, align 4
  %5 = alloca ptr, align 8
  %6 = alloca ptr, align 8
  %7 = alloca i32, align 4
  %8 = alloca ptr, align 8
  %9 = alloca i32, align 4
  store ptr %0, ptr %3, align 8, !tbaa !4
  %10 = load ptr, ptr %3, align 8, !tbaa !4
  call void @_Z14luaL_checktypeP9lua_Stateii(ptr noundef %10, i32 noundef 1, i32 noundef 6)
  %11 = load ptr, ptr %3, align 8, !tbaa !4
  call void @_Z13luaL_checkanyP9lua_Statei(ptr noundef %11, i32 noundef 2)
  call void @llvm.lifetime.start.p0(i64 4, ptr %4) #7
  %12 = load ptr, ptr %3, align 8, !tbaa !4
  %13 = call noundef i32 @_Z15luaL_optintegerP9lua_Stateii(ptr noundef %12, i32 noundef 3, i32 noundef 1)
  store i32 %13, ptr %4, align 4, !tbaa !23
  %14 = load i32, ptr %4, align 4, !tbaa !23
  %15 = icmp slt i32 %14, 1
  br i1 %15, label %16, label %18

16:                                               ; preds = %1
  %17 = load ptr, ptr %3, align 8, !tbaa !4
  call void @_Z14luaL_argerrorLP9lua_StateiPKc(ptr noundef %17, i32 noundef 3, ptr noundef @.str.27) #8
  unreachable

18:                                               ; preds = %1
  call void @llvm.lifetime.start.p0(i64 8, ptr %5) #7
  %19 = load ptr, ptr %3, align 8, !tbaa !4
  %20 = getelementptr inbounds nuw %struct.lua_State, ptr %19, i32 0, i32 8
  %21 = load ptr, ptr %20, align 8, !tbaa !9
  %22 = getelementptr inbounds nuw %struct.lua_TValue, ptr %21, i32 0, i32 0
  %23 = load ptr, ptr %22, align 8, !tbaa !21
  store ptr %23, ptr %5, align 8, !tbaa !22
  call void @llvm.lifetime.start.p0(i64 8, ptr %6) #7
  %24 = load ptr, ptr %3, align 8, !tbaa !4
  %25 = getelementptr inbounds nuw %struct.lua_State, ptr %24, i32 0, i32 8
  %26 = load ptr, ptr %25, align 8, !tbaa !9
  %27 = getelementptr inbounds %struct.lua_TValue, ptr %26, i64 1
  store ptr %27, ptr %6, align 8, !tbaa !28
  call void @llvm.lifetime.start.p0(i64 4, ptr %7) #7
  %28 = load i32, ptr %4, align 4, !tbaa !23
  store i32 %28, ptr %7, align 4, !tbaa !23
  br label %29

29:                                               ; preds = %59, %18
  call void @llvm.lifetime.start.p0(i64 8, ptr %8) #7
  %30 = load ptr, ptr %5, align 8, !tbaa !22
  %31 = load i32, ptr %7, align 4, !tbaa !23
  %32 = call noundef ptr @_Z11luaH_getnumP8LuaTablei(ptr noundef %30, i32 noundef %31)
  store ptr %32, ptr %8, align 8, !tbaa !28
  %33 = load ptr, ptr %8, align 8, !tbaa !28
  %34 = getelementptr inbounds nuw %struct.lua_TValue, ptr %33, i32 0, i32 2
  %35 = load i32, ptr %34, align 4, !tbaa !43
  %36 = icmp eq i32 %35, 0
  br i1 %36, label %37, label %38

37:                                               ; preds = %29
  store i32 2, ptr %9, align 4
  br label %56

38:                                               ; preds = %29
  %39 = load ptr, ptr %6, align 8, !tbaa !28
  %40 = getelementptr inbounds nuw %struct.lua_TValue, ptr %39, i32 0, i32 2
  %41 = load i32, ptr %40, align 4, !tbaa !43
  %42 = load ptr, ptr %8, align 8, !tbaa !28
  %43 = getelementptr inbounds nuw %struct.lua_TValue, ptr %42, i32 0, i32 2
  %44 = load i32, ptr %43, align 4, !tbaa !43
  %45 = icmp eq i32 %41, %44
  br i1 %45, label %46, label %55

46:                                               ; preds = %38
  %47 = load ptr, ptr %3, align 8, !tbaa !4
  %48 = load ptr, ptr %6, align 8, !tbaa !28
  %49 = load ptr, ptr %8, align 8, !tbaa !28
  %50 = call noundef i32 @_Z13luaV_equalvalP9lua_StatePK10lua_TValueS3_(ptr noundef %47, ptr noundef %48, ptr noundef %49)
  %51 = icmp ne i32 %50, 0
  br i1 %51, label %52, label %55

52:                                               ; preds = %46
  %53 = load ptr, ptr %3, align 8, !tbaa !4
  %54 = load i32, ptr %7, align 4, !tbaa !23
  call void @_Z15lua_pushintegerP9lua_Statei(ptr noundef %53, i32 noundef %54)
  store i32 1, ptr %2, align 4
  store i32 1, ptr %9, align 4
  br label %56

55:                                               ; preds = %46, %38
  store i32 0, ptr %9, align 4
  br label %56

56:                                               ; preds = %55, %52, %37
  call void @llvm.lifetime.end.p0(i64 8, ptr %8) #7
  %57 = load i32, ptr %9, align 4
  switch i32 %57, label %62 [
    i32 0, label %58
  ]

58:                                               ; preds = %56
  br label %59

59:                                               ; preds = %58
  %60 = load i32, ptr %7, align 4, !tbaa !23
  %61 = add nsw i32 %60, 1
  store i32 %61, ptr %7, align 4, !tbaa !23
  br label %29, !llvm.loop !57

62:                                               ; preds = %56
  call void @llvm.lifetime.end.p0(i64 4, ptr %7) #7
  %63 = load i32, ptr %9, align 4
  switch i32 %63, label %66 [
    i32 2, label %64
  ]

64:                                               ; preds = %62
  %65 = load ptr, ptr %3, align 8, !tbaa !4
  call void @_Z11lua_pushnilP9lua_State(ptr noundef %65)
  store i32 1, ptr %2, align 4
  store i32 1, ptr %9, align 4
  br label %66

66:                                               ; preds = %64, %62
  call void @llvm.lifetime.end.p0(i64 8, ptr %6) #7
  call void @llvm.lifetime.end.p0(i64 8, ptr %5) #7
  call void @llvm.lifetime.end.p0(i64 4, ptr %4) #7
  %67 = load i32, ptr %2, align 4
  ret i32 %67
}