; Function Attrs: mustprogress uwtable
define internal noundef i32 @_ZL5tfindP9lua_State(ptr noundef %0) #0 {
  tail call void @_Z14luaL_checktypeP9lua_Stateii(ptr noundef %0, i32 noundef 1, i32 noundef 6)
  tail call void @_Z13luaL_checkanyP9lua_Statei(ptr noundef %0, i32 noundef 2)
  %2 = tail call noundef i32 @_Z15luaL_optintegerP9lua_Stateii(ptr noundef %0, i32 noundef 3, i32 noundef 1)
  %3 = icmp slt i32 %2, 1
  br i1 %3, label %4, label %5

4:                                                ; preds = %1
  tail call void @_Z14luaL_argerrorLP9lua_StateiPKc(ptr noundef %0, i32 noundef 3, ptr noundef nonnull @.str.27) #6
  unreachable

5:                                                ; preds = %1
  %6 = getelementptr inbounds nuw i8, ptr %0, i64 16
  %7 = load ptr, ptr %6, align 8, !tbaa !4
  %8 = load ptr, ptr %7, align 8, !tbaa !19
  %9 = getelementptr inbounds nuw i8, ptr %7, i64 16
  %10 = tail call noundef ptr @_Z11luaH_getnumP8LuaTablei(ptr noundef %8, i32 noundef %2)
  %11 = getelementptr inbounds nuw i8, ptr %10, i64 12
  %12 = load i32, ptr %11, align 4, !tbaa !37
  %13 = icmp eq i32 %12, 0
  br i1 %13, label %.critedge27, label %.lr.ph

.lr.ph:                                           ; preds = %5
  %14 = getelementptr inbounds nuw i8, ptr %7, i64 28
  br label %15

15:                                               ; preds = %.lr.ph, %22
  %16 = phi i32 [ %12, %.lr.ph ], [ %26, %22 ]
  %17 = phi ptr [ %10, %.lr.ph ], [ %24, %22 ]
  %.02429 = phi i32 [ %2, %.lr.ph ], [ %23, %22 ]
  %18 = load i32, ptr %14, align 4, !tbaa !37
  %19 = icmp eq i32 %18, %16
  br i1 %19, label %20, label %22

20:                                               ; preds = %15
  %21 = tail call noundef i32 @_Z13luaV_equalvalP9lua_StatePK10lua_TValueS3_(ptr noundef %0, ptr noundef nonnull %9, ptr noundef nonnull %17)
  %.not = icmp eq i32 %21, 0
  br i1 %.not, label %22, label %.critedge

.critedge:                                        ; preds = %20
  tail call void @_Z15lua_pushintegerP9lua_Statei(ptr noundef %0, i32 noundef %.02429)
  br label %28

22:                                               ; preds = %20, %15
  %23 = add nuw nsw i32 %.02429, 1
  %24 = tail call noundef ptr @_Z11luaH_getnumP8LuaTablei(ptr noundef %8, i32 noundef %23)
  %25 = getelementptr inbounds nuw i8, ptr %24, i64 12
  %26 = load i32, ptr %25, align 4, !tbaa !37
  %27 = icmp eq i32 %26, 0
  br i1 %27, label %.critedge27, label %15, !llvm.loop !47

.critedge27:                                      ; preds = %22, %5
  tail call void @_Z11lua_pushnilP9lua_State(ptr noundef %0)
  br label %28

28:                                               ; preds = %.critedge, %.critedge27
  ret i32 1
}